target datalayout = "e-m:e-p270:32:32-p271:32:32-p272:64:64-i64:64-i128:128-f80:128-n8:16:32:64-S128"
target triple = "x86_64-pc-linux-gnu"

%struct.FFJXLMetadata = type { i32, i32, i32, i32, i32, i32, i32, %struct.AVRational, i32, i32, i32, i32, i32, i32, i32, i32 }
%struct.AVRational = type { i32, i32 }
%struct.AVProbeData = type { ptr, ptr, i32, ptr }

; Function Attrs: nounwind uwtable
define internal i32 @jpegxl_anim_probe(ptr noundef %0) #0 {
  %2 = alloca i32, align 4
  %3 = alloca ptr, align 8
  %4 = alloca [4160 x i8], align 16
  %5 = alloca i32, align 4
  %6 = alloca i32, align 4
  %7 = alloca %struct.FFJXLMetadata, align 4
  %8 = alloca i32, align 4
  store ptr %0, ptr %3, align 8, !tbaa !4
  call void @llvm.lifetime.start.p0(i64 4160, ptr %4) #6
  call void @llvm.memset.p0.i64(ptr align 16 %4, i8 0, i64 4160, i1 false)
  call void @llvm.lifetime.start.p0(i64 4, ptr %5) #6
  store i32 0, ptr %5, align 4, !tbaa !9
  call void @llvm.lifetime.start.p0(i64 4, ptr %6) #6
  call void @llvm.lifetime.start.p0(i64 68, ptr %7) #6
  call void @llvm.memset.p0.i64(ptr align 4 %7, i8 0, i64 68, i1 false)
  %9 = load ptr, ptr %3, align 8, !tbaa !4
  %10 = getelementptr inbounds nuw %struct.AVProbeData, ptr %9, i32 0, i32 1
  %11 = load ptr, ptr %10, align 8, !tbaa !11
  %12 = load i16, ptr %11, align 1, !tbaa !14
  %13 = zext i16 %12 to i32
  %14 = icmp eq i32 %13, 2815
  br i1 %14, label %15, label %31

15:                                               ; preds = %1
  %16 = load ptr, ptr %3, align 8, !tbaa !4
  %17 = getelementptr inbounds nuw %struct.AVProbeData, ptr %16, i32 0, i32 1
  %18 = load ptr, ptr %17, align 8, !tbaa !11
  %19 = load ptr, ptr %3, align 8, !tbaa !4
  %20 = getelementptr inbounds nuw %struct.AVProbeData, ptr %19, i32 0, i32 2
  %21 = load i32, ptr %20, align 8, !tbaa !15
  %22 = call i32 @ff_jpegxl_parse_codestream_header(ptr noundef %18, i32 noundef %21, ptr noundef %7, i32 noundef 5)
  store i32 %22, ptr %6, align 4, !tbaa !9
  %23 = load i32, ptr %6, align 4, !tbaa !9
  %24 = icmp sge i32 %23, 0
  br i1 %24, label %25, label %30

25:                                               ; preds = %15
  %26 = getelementptr inbounds nuw %struct.FFJXLMetadata, ptr %7, i32 0, i32 6
  %27 = load i32, ptr %26, align 4, !tbaa !16
  %28 = icmp sgt i32 %27, 0
  br i1 %28, label %29, label %30

29:                                               ; preds = %25
  store i32 100, ptr %2, align 4
  store i32 1, ptr %8, align 4
  br label %64

30:                                               ; preds = %25, %15
  store i32 0, ptr %2, align 4
  store i32 1, ptr %8, align 4
  br label %64

31:                                               ; preds = %1
  %32 = load ptr, ptr %3, align 8, !tbaa !4
  %33 = getelementptr inbounds nuw %struct.AVProbeData, ptr %32, i32 0, i32 1
  %34 = load ptr, ptr %33, align 8, !tbaa !11
  %35 = load i64, ptr %34, align 1, !tbaa !14
  %36 = icmp ne i64 %35, 2327332182495854592
  br i1 %36, label %37, label %38

37:                                               ; preds = %31
  store i32 0, ptr %2, align 4
  store i32 1, ptr %8, align 4
  br label %64

38:                                               ; preds = %31
  %39 = load ptr, ptr %3, align 8, !tbaa !4
  %40 = getelementptr inbounds nuw %struct.AVProbeData, ptr %39, i32 0, i32 1
  %41 = load ptr, ptr %40, align 8, !tbaa !11
  %42 = load ptr, ptr %3, align 8, !tbaa !4
  %43 = getelementptr inbounds nuw %struct.AVProbeData, ptr %42, i32 0, i32 2
  %44 = load i32, ptr %43, align 8, !tbaa !15
  %45 = getelementptr inbounds [4160 x i8], ptr %4, i64 0, i64 0
  %46 = call i32 @ff_jpegxl_collect_codestream_header(ptr noundef %41, i32 noundef %44, ptr noundef %45, i32 noundef 4096, ptr noundef %5)
  %47 = icmp sle i32 %46, 0
  br i1 %47, label %51, label %48

48:                                               ; preds = %38
  %49 = load i32, ptr %5, align 4, !tbaa !9
  %50 = icmp sle i32 %49, 0
  br i1 %50, label %51, label %52

51:                                               ; preds = %48, %38
  store i32 0, ptr %2, align 4
  store i32 1, ptr %8, align 4
  br label %64

52:                                               ; preds = %48
  %53 = getelementptr inbounds [4160 x i8], ptr %4, i64 0, i64 0
  %54 = load i32, ptr %5, align 4, !tbaa !9
  %55 = call i32 @ff_jpegxl_parse_codestream_header(ptr noundef %53, i32 noundef %54, ptr noundef %7, i32 noundef 10)
  store i32 %55, ptr %6, align 4, !tbaa !9
  %56 = load i32, ptr %6, align 4, !tbaa !9
  %57 = icmp sge i32 %56, 0
  br i1 %57, label %58, label %63

58:                                               ; preds = %52
  %59 = getelementptr inbounds nuw %struct.FFJXLMetadata, ptr %7, i32 0, i32 6
  %60 = load i32, ptr %59, align 4, !tbaa !16
  %61 = icmp sgt i32 %60, 0
  br i1 %61, label %62, label %63

62:                                               ; preds = %58
  store i32 100, ptr %2, align 4
  store i32 1, ptr %8, align 4
  br label %64

63:                                               ; preds = %58, %52
  store i32 0, ptr %2, align 4
  store i32 1, ptr %8, align 4
  br label %64

64:                                               ; preds = %63, %62, %51, %37, %30, %29
  call void @llvm.lifetime.end.p0(i64 68, ptr %7) #6
  call void @llvm.lifetime.end.p0(i64 4, ptr %6) #6
  call void @llvm.lifetime.end.p0(i64 4, ptr %5) #6
  call void @llvm.lifetime.end.p0(i64 4160, ptr %4) #6
  %65 = load i32, ptr %2, align 4
  ret i32 %65
}