; Function Attrs: nounwind uwtable
define internal range(i32 0, 101) i32 @jpegxl_anim_probe(ptr noundef readonly captures(none) %0) #0 {
  %2 = alloca [4160 x i8], align 16
  %3 = alloca i32, align 4
  %4 = alloca %struct.FFJXLMetadata, align 4
  call void @llvm.lifetime.start.p0(i64 4160, ptr nonnull %2) #6
  call void @llvm.memset.p0.i64(ptr noundef nonnull align 16 dereferenceable(4160) %2, i8 0, i64 4160, i1 false)
  call void @llvm.lifetime.start.p0(i64 4, ptr nonnull %3) #6
  store i32 0, ptr %3, align 4, !tbaa !4
  call void @llvm.lifetime.start.p0(i64 68, ptr nonnull %4) #6
  call void @llvm.memset.p0.i64(ptr noundef nonnull align 4 dereferenceable(68) %4, i8 0, i64 68, i1 false)
  %5 = getelementptr inbounds nuw i8, ptr %0, i64 8
  %6 = load ptr, ptr %5, align 8, !tbaa !8
  %7 = load i16, ptr %6, align 1, !tbaa !12
  %8 = icmp eq i16 %7, 2815
  br i1 %8, label %9, label %17

9:                                                ; preds = %1
  %10 = getelementptr inbounds nuw i8, ptr %0, i64 16
  %11 = load i32, ptr %10, align 8, !tbaa !13
  %12 = call i32 @ff_jpegxl_parse_codestream_header(ptr noundef nonnull %6, i32 noundef %11, ptr noundef nonnull %4, i32 noundef 5) #6
  %13 = icmp sgt i32 %12, -1
  %14 = getelementptr inbounds nuw i8, ptr %4, i64 24
  %15 = load i32, ptr %14, align 4
  %16 = icmp sgt i32 %15, 0
  %or.cond = select i1 %13, i1 %16, i1 false
  %. = select i1 %or.cond, i32 100, i32 0
  br label %32

17:                                               ; preds = %1
  %18 = load i64, ptr %6, align 1, !tbaa !12
  %.not = icmp eq i64 %18, 2327332182495854592
  br i1 %.not, label %19, label %32

19:                                               ; preds = %17
  %20 = getelementptr inbounds nuw i8, ptr %0, i64 16
  %21 = load i32, ptr %20, align 8, !tbaa !13
  %22 = call i32 @ff_jpegxl_collect_codestream_header(ptr noundef nonnull %6, i32 noundef %21, ptr noundef nonnull %2, i32 noundef 4096, ptr noundef nonnull %3) #6
  %23 = icmp slt i32 %22, 1
  %24 = load i32, ptr %3, align 4
  %25 = icmp slt i32 %24, 1
  %or.cond4 = select i1 %23, i1 true, i1 %25
  br i1 %or.cond4, label %32, label %26

26:                                               ; preds = %19
  %27 = call i32 @ff_jpegxl_parse_codestream_header(ptr noundef nonnull %2, i32 noundef %24, ptr noundef nonnull %4, i32 noundef 10) #6
  %28 = icmp sgt i32 %27, -1
  %29 = getelementptr inbounds nuw i8, ptr %4, i64 24
  %30 = load i32, ptr %29, align 4
  %31 = icmp sgt i32 %30, 0
  %or.cond7 = select i1 %28, i1 %31, i1 false
  %.16 = select i1 %or.cond7, i32 100, i32 0
  br label %32

32:                                               ; preds = %26, %19, %17, %9
  %.0 = phi i32 [ %., %9 ], [ 0, %17 ], [ 0, %19 ], [ %.16, %26 ]
  call void @llvm.lifetime.end.p0(i64 68, ptr nonnull %4) #6
  call void @llvm.lifetime.end.p0(i64 4, ptr nonnull %3) #6
  call void @llvm.lifetime.end.p0(i64 4160, ptr nonnull %2) #6
  ret i32 %.0
}